; Function Attrs: mustprogress nounwind uwtable
define dso_local void @_ZN4llvm17DbgVariableRecord14setKillAddressEv(ptr noundef nonnull align 8 dereferenceable(96) %0) local_unnamed_addr #0 align 2 {
_ZN4llvm16dyn_cast_or_nullINS_15ValueAsMetadataENS_8MetadataEEEDaPT0_.exit.i:
  %1 = getelementptr inbounds i8, ptr %0, i64 40
  %2 = getelementptr inbounds nuw i8, ptr %0, i64 64
  %3 = load i8, ptr %2, align 8
  %4 = icmp eq i8 %3, 2
  %.in.v.i.i = select i1 %4, i64 48, i64 40
  %.in.i.i = getelementptr inbounds i8, ptr %0, i64 %.in.v.i.i
  %5 = load ptr, ptr %.in.i.i, align 8, !nonnull !4, !noundef !4
  %6 = load i8, ptr %5, align 4
  %7 = add i8 %6, -1
  %spec.select.i.i.i.i.i.i.i.i.i.i = icmp ult i8 %7, 2
  tail call void @llvm.assume(i1 %spec.select.i.i.i.i.i.i.i.i.i.i)
  %8 = getelementptr inbounds nuw i8, ptr %5, i64 128
  %9 = load ptr, ptr %8, align 8
  %10 = getelementptr inbounds nuw i8, ptr %9, i64 8
  %11 = load ptr, ptr %10, align 8
  %12 = tail call noundef ptr @_ZN4llvm11PoisonValue3getEPNS_4TypeE(ptr noundef %11) #17
  %13 = tail call noundef ptr @_ZN4llvm15ValueAsMetadata3getEPNS_5ValueE(ptr noundef %12) #17
  tail call void @_ZN4llvm14DebugValueUser17untrackDebugValueEm(ptr noundef nonnull align 8 dereferenceable(24) %1, i64 noundef 1) #17
  %14 = getelementptr inbounds i8, ptr %0, i64 48
  store ptr %13, ptr %14, align 8
  tail call void @_ZN4llvm14DebugValueUser15trackDebugValueEm(ptr noundef nonnull align 8 dereferenceable(24) %1, i64 noundef 1) #17
  ret void
}